; Function Attrs: nofree norecurse nosync nounwind memory(read, inaccessiblemem: none) uwtable
define i32 @Abc_NtkCountPis(ptr noundef readonly captures(none) %0) local_unnamed_addr #4 {
  %2 = getelementptr i8, ptr %0, i64 4
  %.val = load i32, ptr %2, align 4
  %3 = icmp sgt i32 %.val, 0
  br i1 %3, label %.lr.ph, label %.critedge

.lr.ph:                                           ; preds = %1
  %4 = getelementptr i8, ptr %0, i64 8
  %.val8 = load ptr, ptr %4, align 8
  %wide.trip.count = zext nneg i32 %.val to i64
  br label %5

5:                                                ; preds = %.lr.ph, %5
  %indvars.iv = phi i64 [ 0, %.lr.ph ], [ %indvars.iv.next, %5 ]
  %.011 = phi i32 [ 0, %.lr.ph ], [ %12, %5 ]
  %6 = getelementptr inbounds nuw ptr, ptr %.val8, i64 %indvars.iv
  %7 = load ptr, ptr %6, align 8
  %8 = getelementptr i8, ptr %7, i64 20
  %.val9 = load i32, ptr %8, align 4
  %9 = and i32 %.val9, 15
  %10 = icmp eq i32 %9, 2
  %11 = zext i1 %10 to i32
  %12 = add nuw nsw i32 %.011, %11
  %indvars.iv.next = add nuw nsw i64 %indvars.iv, 1
  %exitcond.not = icmp eq i64 %indvars.iv.next, %wide.trip.count
  br i1 %exitcond.not, label %.critedge, label %5, !llvm.loop !84

.critedge:                                        ; preds = %5, %1
  %.0.lcssa = phi i32 [ 0, %1 ], [ %12, %5 ]
  ret i32 %.0.lcssa
}